target datalayout = "e-m:e-p270:32:32-p271:32:32-p272:64:64-i64:64-i128:128-f80:128-n8:16:32:64-S128"
target triple = "x86_64-pc-linux-gnu"

%struct.reftable_iterator_vtable = type { ptr, ptr, ptr }
%struct.reftable_iterator = type { ptr, ptr }
%struct.reftable_record = type { i8, %union.anon }
%union.anon = type { %struct.reftable_log_record }
%struct.reftable_log_record = type { ptr, i64, i64, i32, %union.anon.1 }
%union.anon.1 = type { %struct.anon.2 }
%struct.anon.2 = type { [32 x i8], [32 x i8], ptr, ptr, i64, i16, ptr, i64 }
%struct.reftable_ref_record = type { ptr, i64, i64, i32, %union.anon.0 }
%union.anon.0 = type { ptr, [56 x i8] }

; Function Attrs: nounwind uwtable
define dso_local i32 @reftable_iterator_seek_ref(ptr noundef %0, ptr noundef %1) #0 {
  %3 = alloca ptr, align 8
  %4 = alloca ptr, align 8
  %5 = alloca %struct.reftable_record, align 8
  store ptr %0, ptr %3, align 8, !tbaa !4
  store ptr %1, ptr %4, align 8, !tbaa !24
  call void @llvm.lifetime.start.p0(i64 152, ptr %5) #7
  call void @llvm.memset.p0.i64(ptr align 8 %5, i8 0, i64 152, i1 false)
  %6 = getelementptr inbounds nuw %struct.reftable_record, ptr %5, i32 0, i32 0
  store i8 114, ptr %6, align 8, !tbaa !54
  %7 = getelementptr inbounds nuw %struct.reftable_record, ptr %5, i32 0, i32 1
  %8 = getelementptr inbounds nuw %struct.reftable_ref_record, ptr %7, i32 0, i32 0
  %9 = load ptr, ptr %4, align 8, !tbaa !24
  store ptr %9, ptr %8, align 8, !tbaa !56
  %10 = load ptr, ptr %3, align 8, !tbaa !4
  %11 = getelementptr inbounds nuw %struct.reftable_iterator, ptr %10, i32 0, i32 0
  %12 = load ptr, ptr %11, align 8, !tbaa !11
  %13 = getelementptr inbounds nuw %struct.reftable_iterator_vtable, ptr %12, i32 0, i32 0
  %14 = load ptr, ptr %13, align 8, !tbaa !14
  %15 = load ptr, ptr %3, align 8, !tbaa !4
  %16 = getelementptr inbounds nuw %struct.reftable_iterator, ptr %15, i32 0, i32 1
  %17 = load ptr, ptr %16, align 8, !tbaa !16
  %18 = call i32 %14(ptr noundef %17, ptr noundef %5)
  call void @llvm.lifetime.end.p0(i64 152, ptr %5) #7
  ret i32 %18
}