; Function Attrs: nounwind uwtable
define dso_local i32 @reftable_iterator_seek_ref(ptr noundef readonly captures(none) %0, ptr noundef %1) local_unnamed_addr #0 {
  %3 = alloca %struct.reftable_record, align 8
  call void @llvm.lifetime.start.p0(i64 152, ptr nonnull %3) #10
  call void @llvm.memset.p0.i64(ptr noundef nonnull align 8 dereferenceable(152) %3, i8 0, i64 152, i1 false)
  store i8 114, ptr %3, align 8, !tbaa !37
  %4 = getelementptr inbounds nuw i8, ptr %3, i64 8
  store ptr %1, ptr %4, align 8, !tbaa !39
  %5 = load ptr, ptr %0, align 8, !tbaa !4
  %6 = load ptr, ptr %5, align 8, !tbaa !10
  %7 = getelementptr inbounds nuw i8, ptr %0, i64 8
  %8 = load ptr, ptr %7, align 8, !tbaa !12
  %9 = call i32 %6(ptr noundef %8, ptr noundef nonnull %3) #10
  call void @llvm.lifetime.end.p0(i64 152, ptr nonnull %3) #10
  ret i32 %9
}